; Function Attrs: nounwind uwtable
define internal i32 @_group_events_mouse_scrolled(ptr noundef %0, float noundef %1, float noundef %2, i32 noundef %3, i32 noundef %4, ptr noundef readonly captures(none) %5, i32 %6, ptr noundef %7, i32 %8) #0 {
  %10 = getelementptr inbounds nuw i8, ptr %7, i64 156
  %11 = load i32, ptr %10, align 4, !tbaa !138
  %12 = icmp sgt i32 %11, -1
  br i1 %12, label %13, label %.thread

13:                                               ; preds = %9
  %14 = load ptr, ptr %5, align 8, !tbaa !59
  %15 = tail call ptr @g_list_nth_data(ptr noundef %14, i32 noundef %11) #12
  %16 = load ptr, ptr getelementptr inbounds nuw (i8, ptr @darktable, i64 64), align 8, !tbaa !13
  %17 = load i32, ptr %15, align 4, !tbaa !51
  %18 = tail call ptr @dt_masks_get_from_id(ptr noundef %16, i32 noundef %17) #12
  %.not = icmp eq ptr %18, null
  br i1 %.not, label %.thread, label %19

19:                                               ; preds = %13
  %20 = getelementptr inbounds nuw i8, ptr %18, i64 16
  %21 = load ptr, ptr %20, align 8, !tbaa !54
  %.not21 = icmp eq ptr %21, null
  br i1 %.not21, label %.thread, label %22

22:                                               ; preds = %19
  %23 = getelementptr inbounds nuw i8, ptr %21, i64 128
  %24 = load ptr, ptr %23, align 8, !tbaa !185
  %25 = getelementptr inbounds nuw i8, ptr %15, i64 4
  %26 = load i32, ptr %25, align 4, !tbaa !68
  %27 = load i32, ptr %10, align 4, !tbaa !138
  %28 = tail call i32 %24(ptr noundef %0, float noundef %1, float noundef %2, i32 noundef %3, i32 noundef %4, ptr noundef nonnull %18, i32 noundef %26, ptr noundef nonnull %7, i32 noundef %27) #12
  br label %.thread

.thread:                                          ; preds = %13, %19, %9, %22
  %.1 = phi i32 [ %28, %22 ], [ 0, %9 ], [ 0, %19 ], [ 0, %13 ]
  ret i32 %.1
}